target datalayout = "e-m:e-p270:32:32-p271:32:32-p272:64:64-i64:64-i128:128-f80:128-n8:16:32:64-S128"
target triple = "x86_64-pc-linux-gnu"

%struct.darktable_t = type { %struct.dt_codepath_t, i32, i32, ptr, ptr, ptr, ptr, ptr, ptr, ptr, ptr, ptr, ptr, ptr, ptr, ptr, ptr, ptr, ptr, ptr, ptr, ptr, ptr, ptr, ptr, ptr, ptr, ptr, ptr, ptr, [64 x %struct.dt_pthread_mutex_t], %struct.dt_pthread_mutex_t, %struct.dt_pthread_mutex_t, %struct.dt_pthread_mutex_t, %struct.dt_pthread_mutex_t, %struct.dt_pthread_mutex_t, ptr, ptr, ptr, ptr, ptr, ptr, ptr, ptr, ptr, ptr, ptr, ptr, ptr, %struct.dt_lua_state_t, ptr, double, ptr, i32, [47 x i32], i32, i32, ptr, ptr, %struct.dt_sys_resources_t, %struct.dt_backthumb_t, %struct.dt_gimp_t }
%struct.dt_codepath_t = type { i8, [3 x i8] }
%struct.dt_pthread_mutex_t = type { %union.pthread_mutex_t }
%union.pthread_mutex_t = type { %struct.__pthread_mutex_s }
%struct.__pthread_mutex_s = type { i32, i32, i32, i32, i32, i16, i16, %struct.__pthread_internal_list }
%struct.__pthread_internal_list = type { ptr, ptr }
%struct.dt_lua_state_t = type { i32 }
%struct.dt_sys_resources_t = type { i64, i64, ptr, ptr, i32 }
%struct.dt_backthumb_t = type { double, double, i32, i32, i32, i32 }
%struct.dt_gimp_t = type { i32, ptr, ptr, i32, i32 }
%struct.dt_iop_module_t = type { i32, ptr, ptr, ptr, ptr, ptr, ptr, ptr, ptr, ptr, ptr, ptr, ptr, ptr, ptr, ptr, ptr, ptr, ptr, ptr, ptr, ptr, ptr, ptr, ptr, ptr, ptr, ptr, ptr, ptr, ptr, ptr, ptr, ptr, ptr, ptr, ptr, ptr, ptr, ptr, ptr, ptr, ptr, ptr, ptr, ptr, ptr, ptr, ptr, ptr, ptr, ptr, ptr, ptr, ptr, ptr, ptr, [20 x i8], i32, i32, i32, i32, i32, i32, i32, [8 x i8], [4 x float], [4 x float], [4 x float], [4 x float], [4 x float], [4 x float], ptr, %struct.dt_dev_histogram_stats_t, [4 x i32], i32, i32, ptr, i32, i32, ptr, ptr, i32, ptr, %struct.dt_pthread_mutex_t, ptr, ptr, ptr, ptr, %struct.anon, ptr, ptr, ptr, ptr, ptr, ptr, ptr, i32, ptr, ptr, ptr, ptr, ptr, ptr, ptr, i32, ptr, i32, [128 x i8], i32, ptr, ptr, i32, [12 x i8] }
%struct.dt_dev_histogram_stats_t = type { i32, i64, i32, i32 }
%struct.anon = type { %struct.anon.0, %struct.anon.1 }
%struct.anon.0 = type { ptr, ptr }
%struct.anon.1 = type { ptr, i32 }
%struct.dt_iop_rgblevels_gui_data_t = type { %struct.dt_iop_rgblevels_params_t, ptr, ptr, ptr, ptr, ptr, ptr, i32, i32, float, float, float, float, [4 x float], i32, double, double, i32, i32, float, i32, float, ptr, ptr, ptr }
%struct.dt_iop_rgblevels_params_t = type { i32, i32, [3 x [3 x float]] }

@darktable = external global %struct.darktable_t, align 8

; Function Attrs: nounwind uwtable
define void @color_picker_apply(ptr noundef %0, ptr noundef %1, ptr noundef %2) #0 {
  %4 = alloca ptr, align 8
  %5 = alloca ptr, align 8
  %6 = alloca ptr, align 8
  %7 = alloca ptr, align 8
  %8 = alloca ptr, align 8
  %9 = alloca i32, align 4
  %10 = alloca float, align 4
  %11 = alloca [4 x float], align 16
  store ptr %0, ptr %4, align 8, !tbaa !6
  store ptr %1, ptr %5, align 8, !tbaa !123
  store ptr %2, ptr %6, align 8, !tbaa !11
  call void @llvm.lifetime.start.p0(i64 8, ptr %7) #13
  %12 = load ptr, ptr %4, align 8, !tbaa !6
  %13 = getelementptr inbounds nuw %struct.dt_iop_module_t, ptr %12, i32 0, i32 83
  %14 = load ptr, ptr %13, align 16, !tbaa !21
  store ptr %14, ptr %7, align 8, !tbaa !37
  call void @llvm.lifetime.start.p0(i64 8, ptr %8) #13
  %15 = load ptr, ptr %4, align 8, !tbaa !6
  %16 = getelementptr inbounds nuw %struct.dt_iop_module_t, ptr %15, i32 0, i32 80
  %17 = load ptr, ptr %16, align 8, !tbaa !125
  store ptr %17, ptr %8, align 8, !tbaa !126
  call void @llvm.lifetime.start.p0(i64 4, ptr %9) #13
  %18 = load ptr, ptr %7, align 8, !tbaa !37
  %19 = getelementptr inbounds nuw %struct.dt_iop_rgblevels_gui_data_t, ptr %18, i32 0, i32 20
  %20 = load i32, ptr %19, align 4, !tbaa !129
  store i32 %20, ptr %9, align 4, !tbaa !19
  call void @llvm.lifetime.start.p0(i64 4, ptr %10) #13
  %21 = load ptr, ptr %4, align 8, !tbaa !6
  %22 = getelementptr inbounds nuw %struct.dt_iop_module_t, ptr %21, i32 0, i32 66
  %23 = getelementptr inbounds [4 x float], ptr %22, i64 0, i64 0
  %24 = load float, ptr %23, align 16, !tbaa !15
  store float %24, ptr %10, align 4, !tbaa !15
  %25 = load float, ptr %10, align 4, !tbaa !15
  %26 = load ptr, ptr %7, align 8, !tbaa !37
  %27 = getelementptr inbounds nuw %struct.dt_iop_rgblevels_gui_data_t, ptr %26, i32 0, i32 21
  %28 = load float, ptr %27, align 8, !tbaa !133
  %29 = fcmp reassoc nsz arcp contract afn une float %25, %28
  br i1 %29, label %30, label %225

30:                                               ; preds = %3
  call void @llvm.lifetime.start.p0(i64 16, ptr %11) #13
  %31 = load ptr, ptr %8, align 8, !tbaa !126
  %32 = getelementptr inbounds nuw %struct.dt_iop_rgblevels_params_t, ptr %31, i32 0, i32 2
  %33 = load i32, ptr %9, align 4, !tbaa !19
  %34 = zext i32 %33 to i64
  %35 = getelementptr inbounds nuw [3 x [3 x float]], ptr %32, i64 0, i64 %34
  %36 = getelementptr inbounds [3 x float], ptr %35, i64 0, i64 0
  %37 = load float, ptr %36, align 4, !tbaa !15
  %38 = getelementptr inbounds [4 x float], ptr %11, i64 0, i64 0
  store float %37, ptr %38, align 16, !tbaa !15
  %39 = load ptr, ptr %8, align 8, !tbaa !126
  %40 = getelementptr inbounds nuw %struct.dt_iop_rgblevels_params_t, ptr %39, i32 0, i32 2
  %41 = load i32, ptr %9, align 4, !tbaa !19
  %42 = zext i32 %41 to i64
  %43 = getelementptr inbounds nuw [3 x [3 x float]], ptr %40, i64 0, i64 %42
  %44 = getelementptr inbounds [3 x float], ptr %43, i64 0, i64 1
  %45 = load float, ptr %44, align 4, !tbaa !15
  %46 = getelementptr inbounds [4 x float], ptr %11, i64 0, i64 1
  store float %45, ptr %46, align 4, !tbaa !15
  %47 = load ptr, ptr %8, align 8, !tbaa !126
  %48 = getelementptr inbounds nuw %struct.dt_iop_rgblevels_params_t, ptr %47, i32 0, i32 2
  %49 = load i32, ptr %9, align 4, !tbaa !19
  %50 = zext i32 %49 to i64
  %51 = getelementptr inbounds nuw [3 x [3 x float]], ptr %48, i64 0, i64 %50
  %52 = getelementptr inbounds [3 x float], ptr %51, i64 0, i64 2
  %53 = load float, ptr %52, align 4, !tbaa !15
  %54 = getelementptr inbounds [4 x float], ptr %11, i64 0, i64 2
  store float %53, ptr %54, align 8, !tbaa !15
  %55 = load float, ptr %10, align 4, !tbaa !15
  %56 = load ptr, ptr %7, align 8, !tbaa !37
  %57 = getelementptr inbounds nuw %struct.dt_iop_rgblevels_gui_data_t, ptr %56, i32 0, i32 21
  store float %55, ptr %57, align 8, !tbaa !133
  %58 = load ptr, ptr %5, align 8, !tbaa !123
  %59 = load ptr, ptr %7, align 8, !tbaa !37
  %60 = getelementptr inbounds nuw %struct.dt_iop_rgblevels_gui_data_t, ptr %59, i32 0, i32 22
  %61 = load ptr, ptr %60, align 8, !tbaa !134
  %62 = icmp eq ptr %58, %61
  br i1 %62, label %63, label %97

63:                                               ; preds = %30
  %64 = load float, ptr %10, align 4, !tbaa !15
  %65 = load ptr, ptr %8, align 8, !tbaa !126
  %66 = getelementptr inbounds nuw %struct.dt_iop_rgblevels_params_t, ptr %65, i32 0, i32 2
  %67 = load i32, ptr %9, align 4, !tbaa !19
  %68 = zext i32 %67 to i64
  %69 = getelementptr inbounds nuw [3 x [3 x float]], ptr %66, i64 0, i64 %68
  %70 = getelementptr inbounds [3 x float], ptr %69, i64 0, i64 1
  %71 = load float, ptr %70, align 4, !tbaa !15
  %72 = fcmp reassoc nsz arcp contract afn ogt float %64, %71
  br i1 %72, label %73, label %88

73:                                               ; preds = %63
  %74 = load ptr, ptr %8, align 8, !tbaa !126
  %75 = getelementptr inbounds nuw %struct.dt_iop_rgblevels_params_t, ptr %74, i32 0, i32 2
  %76 = load i32, ptr %9, align 4, !tbaa !19
  %77 = zext i32 %76 to i64
  %78 = getelementptr inbounds nuw [3 x [3 x float]], ptr %75, i64 0, i64 %77
  %79 = getelementptr inbounds [3 x float], ptr %78, i64 0, i64 1
  %80 = load float, ptr %79, align 4, !tbaa !15
  %81 = fsub reassoc nsz arcp contract afn float %80, 0x3E80000000000000
  %82 = load ptr, ptr %8, align 8, !tbaa !126
  %83 = getelementptr inbounds nuw %struct.dt_iop_rgblevels_params_t, ptr %82, i32 0, i32 2
  %84 = load i32, ptr %9, align 4, !tbaa !19
  %85 = zext i32 %84 to i64
  %86 = getelementptr inbounds nuw [3 x [3 x float]], ptr %83, i64 0, i64 %85
  %87 = getelementptr inbounds [3 x float], ptr %86, i64 0, i64 0
  store float %81, ptr %87, align 4, !tbaa !15
  br label %96

88:                                               ; preds = %63
  %89 = load float, ptr %10, align 4, !tbaa !15
  %90 = load ptr, ptr %8, align 8, !tbaa !126
  %91 = getelementptr inbounds nuw %struct.dt_iop_rgblevels_params_t, ptr %90, i32 0, i32 2
  %92 = load i32, ptr %9, align 4, !tbaa !19
  %93 = zext i32 %92 to i64
  %94 = getelementptr inbounds nuw [3 x [3 x float]], ptr %91, i64 0, i64 %93
  %95 = getelementptr inbounds [3 x float], ptr %94, i64 0, i64 0
  store float %89, ptr %95, align 4, !tbaa !15
  br label %96

96:                                               ; preds = %88, %73
  br label %188

97:                                               ; preds = %30
  %98 = load ptr, ptr %5, align 8, !tbaa !123
  %99 = load ptr, ptr %7, align 8, !tbaa !37
  %100 = getelementptr inbounds nuw %struct.dt_iop_rgblevels_gui_data_t, ptr %99, i32 0, i32 23
  %101 = load ptr, ptr %100, align 8, !tbaa !135
  %102 = icmp eq ptr %98, %101
  br i1 %102, label %103, label %146

103:                                              ; preds = %97
  %104 = load float, ptr %10, align 4, !tbaa !15
  %105 = load ptr, ptr %8, align 8, !tbaa !126
  %106 = getelementptr inbounds nuw %struct.dt_iop_rgblevels_params_t, ptr %105, i32 0, i32 2
  %107 = load i32, ptr %9, align 4, !tbaa !19
  %108 = zext i32 %107 to i64
  %109 = getelementptr inbounds nuw [3 x [3 x float]], ptr %106, i64 0, i64 %108
  %110 = getelementptr inbounds [3 x float], ptr %109, i64 0, i64 0
  %111 = load float, ptr %110, align 4, !tbaa !15
  %112 = fcmp reassoc nsz arcp contract afn olt float %104, %111
  br i1 %112, label %123, label %113

113:                                              ; preds = %103
  %114 = load float, ptr %10, align 4, !tbaa !15
  %115 = load ptr, ptr %8, align 8, !tbaa !126
  %116 = getelementptr inbounds nuw %struct.dt_iop_rgblevels_params_t, ptr %115, i32 0, i32 2
  %117 = load i32, ptr %9, align 4, !tbaa !19
  %118 = zext i32 %117 to i64
  %119 = getelementptr inbounds nuw [3 x [3 x float]], ptr %116, i64 0, i64 %118
  %120 = getelementptr inbounds [3 x float], ptr %119, i64 0, i64 2
  %121 = load float, ptr %120, align 4, !tbaa !15
  %122 = fcmp reassoc nsz arcp contract afn ogt float %114, %121
  br i1 %122, label %123, label %137

123:                                              ; preds = %113, %103
  %124 = load ptr, ptr %8, align 8, !tbaa !126
  %125 = getelementptr inbounds nuw %struct.dt_iop_rgblevels_params_t, ptr %124, i32 0, i32 2
  %126 = load i32, ptr %9, align 4, !tbaa !19
  %127 = zext i32 %126 to i64
  %128 = getelementptr inbounds nuw [3 x [3 x float]], ptr %125, i64 0, i64 %127
  %129 = getelementptr inbounds [3 x float], ptr %128, i64 0, i64 1
  %130 = load float, ptr %129, align 4, !tbaa !15
  %131 = load ptr, ptr %8, align 8, !tbaa !126
  %132 = getelementptr inbounds nuw %struct.dt_iop_rgblevels_params_t, ptr %131, i32 0, i32 2
  %133 = load i32, ptr %9, align 4, !tbaa !19
  %134 = zext i32 %133 to i64
  %135 = getelementptr inbounds nuw [3 x [3 x float]], ptr %132, i64 0, i64 %134
  %136 = getelementptr inbounds [3 x float], ptr %135, i64 0, i64 1
  store float %130, ptr %136, align 4, !tbaa !15
  br label %145

137:                                              ; preds = %113
  %138 = load float, ptr %10, align 4, !tbaa !15
  %139 = load ptr, ptr %8, align 8, !tbaa !126
  %140 = getelementptr inbounds nuw %struct.dt_iop_rgblevels_params_t, ptr %139, i32 0, i32 2
  %141 = load i32, ptr %9, align 4, !tbaa !19
  %142 = zext i32 %141 to i64
  %143 = getelementptr inbounds nuw [3 x [3 x float]], ptr %140, i64 0, i64 %142
  %144 = getelementptr inbounds [3 x float], ptr %143, i64 0, i64 1
  store float %138, ptr %144, align 4, !tbaa !15
  br label %145

145:                                              ; preds = %137, %123
  br label %187

146:                                              ; preds = %97
  %147 = load ptr, ptr %5, align 8, !tbaa !123
  %148 = load ptr, ptr %7, align 8, !tbaa !37
  %149 = getelementptr inbounds nuw %struct.dt_iop_rgblevels_gui_data_t, ptr %148, i32 0, i32 24
  %150 = load ptr, ptr %149, align 8, !tbaa !136
  %151 = icmp eq ptr %147, %150
  br i1 %151, label %152, label %186

152:                                              ; preds = %146
  %153 = load float, ptr %10, align 4, !tbaa !15
  %154 = load ptr, ptr %8, align 8, !tbaa !126
  %155 = getelementptr inbounds nuw %struct.dt_iop_rgblevels_params_t, ptr %154, i32 0, i32 2
  %156 = load i32, ptr %9, align 4, !tbaa !19
  %157 = zext i32 %156 to i64
  %158 = getelementptr inbounds nuw [3 x [3 x float]], ptr %155, i64 0, i64 %157
  %159 = getelementptr inbounds [3 x float], ptr %158, i64 0, i64 1
  %160 = load float, ptr %159, align 4, !tbaa !15
  %161 = fcmp reassoc nsz arcp contract afn olt float %153, %160
  br i1 %161, label %162, label %177

162:                                              ; preds = %152
  %163 = load ptr, ptr %8, align 8, !tbaa !126
  %164 = getelementptr inbounds nuw %struct.dt_iop_rgblevels_params_t, ptr %163, i32 0, i32 2
  %165 = load i32, ptr %9, align 4, !tbaa !19
  %166 = zext i32 %165 to i64
  %167 = getelementptr inbounds nuw [3 x [3 x float]], ptr %164, i64 0, i64 %166
  %168 = getelementptr inbounds [3 x float], ptr %167, i64 0, i64 1
  %169 = load float, ptr %168, align 4, !tbaa !15
  %170 = fadd reassoc nsz arcp contract afn float %169, 0x3E80000000000000
  %171 = load ptr, ptr %8, align 8, !tbaa !126
  %172 = getelementptr inbounds nuw %struct.dt_iop_rgblevels_params_t, ptr %171, i32 0, i32 2
  %173 = load i32, ptr %9, align 4, !tbaa !19
  %174 = zext i32 %173 to i64
  %175 = getelementptr inbounds nuw [3 x [3 x float]], ptr %172, i64 0, i64 %174
  %176 = getelementptr inbounds [3 x float], ptr %175, i64 0, i64 2
  store float %170, ptr %176, align 4, !tbaa !15
  br label %185

177:                                              ; preds = %152
  %178 = load float, ptr %10, align 4, !tbaa !15
  %179 = load ptr, ptr %8, align 8, !tbaa !126
  %180 = getelementptr inbounds nuw %struct.dt_iop_rgblevels_params_t, ptr %179, i32 0, i32 2
  %181 = load i32, ptr %9, align 4, !tbaa !19
  %182 = zext i32 %181 to i64
  %183 = getelementptr inbounds nuw [3 x [3 x float]], ptr %180, i64 0, i64 %182
  %184 = getelementptr inbounds [3 x float], ptr %183, i64 0, i64 2
  store float %178, ptr %184, align 4, !tbaa !15
  br label %185

185:                                              ; preds = %177, %162
  br label %186

186:                                              ; preds = %185, %146
  br label %187

187:                                              ; preds = %186, %145
  br label %188

188:                                              ; preds = %187, %96
  %189 = getelementptr inbounds [4 x float], ptr %11, i64 0, i64 0
  %190 = load float, ptr %189, align 16, !tbaa !15
  %191 = load ptr, ptr %8, align 8, !tbaa !126
  %192 = getelementptr inbounds nuw %struct.dt_iop_rgblevels_params_t, ptr %191, i32 0, i32 2
  %193 = load i32, ptr %9, align 4, !tbaa !19
  %194 = zext i32 %193 to i64
  %195 = getelementptr inbounds nuw [3 x [3 x float]], ptr %192, i64 0, i64 %194
  %196 = getelementptr inbounds [3 x float], ptr %195, i64 0, i64 0
  %197 = load float, ptr %196, align 4, !tbaa !15
  %198 = fcmp reassoc nsz arcp contract afn une float %190, %197
  br i1 %198, label %221, label %199

199:                                              ; preds = %188
  %200 = getelementptr inbounds [4 x float], ptr %11, i64 0, i64 1
  %201 = load float, ptr %200, align 4, !tbaa !15
  %202 = load ptr, ptr %8, align 8, !tbaa !126
  %203 = getelementptr inbounds nuw %struct.dt_iop_rgblevels_params_t, ptr %202, i32 0, i32 2
  %204 = load i32, ptr %9, align 4, !tbaa !19
  %205 = zext i32 %204 to i64
  %206 = getelementptr inbounds nuw [3 x [3 x float]], ptr %203, i64 0, i64 %205
  %207 = getelementptr inbounds [3 x float], ptr %206, i64 0, i64 1
  %208 = load float, ptr %207, align 4, !tbaa !15
  %209 = fcmp reassoc nsz arcp contract afn une float %201, %208
  br i1 %209, label %221, label %210

210:                                              ; preds = %199
  %211 = getelementptr inbounds [4 x float], ptr %11, i64 0, i64 2
  %212 = load float, ptr %211, align 8, !tbaa !15
  %213 = load ptr, ptr %8, align 8, !tbaa !126
  %214 = getelementptr inbounds nuw %struct.dt_iop_rgblevels_params_t, ptr %213, i32 0, i32 2
  %215 = load i32, ptr %9, align 4, !tbaa !19
  %216 = zext i32 %215 to i64
  %217 = getelementptr inbounds nuw [3 x [3 x float]], ptr %214, i64 0, i64 %216
  %218 = getelementptr inbounds [3 x float], ptr %217, i64 0, i64 2
  %219 = load float, ptr %218, align 4, !tbaa !15
  %220 = fcmp reassoc nsz arcp contract afn une float %212, %219
  br i1 %220, label %221, label %224

221:                                              ; preds = %210, %199, %188
  %222 = load ptr, ptr getelementptr inbounds nuw (%struct.darktable_t, ptr @darktable, i32 0, i32 9), align 8, !tbaa !51
  %223 = load ptr, ptr %4, align 8, !tbaa !6
  call void @dt_dev_add_history_item(ptr noundef %222, ptr noundef %223, i32 noundef 1)
  br label %224

224:                                              ; preds = %221, %210
  call void @llvm.lifetime.end.p0(i64 16, ptr %11) #13
  br label %225

225:                                              ; preds = %224, %3
  call void @llvm.lifetime.end.p0(i64 4, ptr %10) #13
  call void @llvm.lifetime.end.p0(i64 4, ptr %9) #13
  call void @llvm.lifetime.end.p0(i64 8, ptr %8) #13
  call void @llvm.lifetime.end.p0(i64 8, ptr %7) #13
  ret void
}