; Function Attrs: nounwind uwtable
define void @color_picker_apply(ptr noundef %0, ptr noundef readnone %1, ptr noundef readnone captures(none) %2) local_unnamed_addr #1 {
  %4 = getelementptr inbounds nuw i8, ptr %0, i64 704
  %5 = load ptr, ptr %4, align 16, !tbaa !6
  %6 = getelementptr inbounds nuw i8, ptr %0, i64 512
  %7 = load float, ptr %6, align 16, !tbaa !37
  %8 = getelementptr inbounds nuw i8, ptr %5, i64 176
  %9 = load float, ptr %8, align 8, !tbaa !120
  %10 = fcmp reassoc nsz arcp contract afn une float %7, %9
  br i1 %10, label %11, label %65

11:                                               ; preds = %3
  %12 = getelementptr inbounds nuw i8, ptr %5, i64 172
  %13 = load i32, ptr %12, align 4, !tbaa !116
  %14 = getelementptr inbounds nuw i8, ptr %0, i64 680
  %15 = load ptr, ptr %14, align 8, !tbaa !114
  %16 = getelementptr inbounds nuw i8, ptr %15, i64 8
  %17 = zext i32 %13 to i64
  %18 = getelementptr inbounds nuw [3 x [3 x float]], ptr %16, i64 0, i64 %17
  %19 = load float, ptr %18, align 4, !tbaa !37
  %20 = getelementptr inbounds nuw i8, ptr %18, i64 4
  %21 = load float, ptr %20, align 4, !tbaa !37
  %22 = getelementptr inbounds nuw i8, ptr %18, i64 8
  %23 = load float, ptr %22, align 4, !tbaa !37
  store float %7, ptr %8, align 8, !tbaa !120
  %24 = getelementptr inbounds nuw i8, ptr %5, i64 184
  %25 = load ptr, ptr %24, align 8, !tbaa !121
  %26 = icmp eq ptr %1, %25
  br i1 %26, label %27, label %33

27:                                               ; preds = %11
  %28 = load float, ptr %20, align 4, !tbaa !37
  %29 = fcmp reassoc nsz arcp contract afn ogt float %7, %28
  br i1 %29, label %30, label %32

30:                                               ; preds = %27
  %31 = fadd reassoc nsz arcp contract afn float %28, 0xBE80000000000000
  store float %31, ptr %18, align 4, !tbaa !37
  br label %54

32:                                               ; preds = %27
  store float %7, ptr %18, align 4, !tbaa !37
  br label %54

33:                                               ; preds = %11
  %34 = getelementptr inbounds nuw i8, ptr %5, i64 192
  %35 = load ptr, ptr %34, align 8, !tbaa !122
  %36 = icmp eq ptr %1, %35
  br i1 %36, label %37, label %44

37:                                               ; preds = %33
  %38 = load float, ptr %18, align 4, !tbaa !37
  %39 = fcmp reassoc nsz arcp contract afn olt float %7, %38
  br i1 %39, label %54, label %40

40:                                               ; preds = %37
  %41 = load float, ptr %22, align 4, !tbaa !37
  %42 = fcmp reassoc nsz arcp contract afn ogt float %7, %41
  br i1 %42, label %54, label %43

43:                                               ; preds = %40
  store float %7, ptr %20, align 4, !tbaa !37
  br label %54

44:                                               ; preds = %33
  %45 = getelementptr inbounds nuw i8, ptr %5, i64 200
  %46 = load ptr, ptr %45, align 8, !tbaa !123
  %47 = icmp eq ptr %1, %46
  br i1 %47, label %48, label %54

48:                                               ; preds = %44
  %49 = load float, ptr %20, align 4, !tbaa !37
  %50 = fcmp reassoc nsz arcp contract afn olt float %7, %49
  br i1 %50, label %51, label %53

51:                                               ; preds = %48
  %52 = fadd reassoc nsz arcp contract afn float %49, 0x3E80000000000000
  store float %52, ptr %22, align 4, !tbaa !37
  br label %54

53:                                               ; preds = %48
  store float %7, ptr %22, align 4, !tbaa !37
  br label %54

54:                                               ; preds = %37, %40, %43, %51, %53, %44, %30, %32
  %55 = load float, ptr %18, align 4, !tbaa !37
  %56 = fcmp reassoc nsz arcp contract afn une float %19, %55
  br i1 %56, label %63, label %57

57:                                               ; preds = %54
  %58 = load float, ptr %20, align 4, !tbaa !37
  %59 = fcmp reassoc nsz arcp contract afn une float %21, %58
  br i1 %59, label %63, label %60

60:                                               ; preds = %57
  %61 = load float, ptr %22, align 4, !tbaa !37
  %62 = fcmp reassoc nsz arcp contract afn une float %23, %61
  br i1 %62, label %63, label %65

63:                                               ; preds = %60, %57, %54
  %64 = load ptr, ptr getelementptr inbounds nuw (i8, ptr @darktable, i64 64), align 8, !tbaa !42
  tail call void @dt_dev_add_history_item(ptr noundef %64, ptr noundef nonnull %0, i32 noundef 1) #21
  br label %65

65:                                               ; preds = %60, %63, %3
  ret void
}